target datalayout = "e-m:e-p270:32:32-p271:32:32-p272:64:64-i64:64-i128:128-f80:128-n8:16:32:64-S128"
target triple = "x86_64-pc-linux-gnu"

@.str.33 = private unnamed_addr constant [5 x i8] c"long\00", align 1
@.str.34 = private unnamed_addr constant [5 x i8] c"full\00", align 1
@.str.35 = private unnamed_addr constant [27 x i8] c"Unknown help option '%s'.\0A\00", align 1
@program_name = external constant [0 x i8], align 1
@.str.37 = private unnamed_addr constant [41 x i8] c"Print help / information / capabilities:\00", align 1
@.str.38 = private unnamed_addr constant [37 x i8] c"Advanced information / capabilities:\00", align 1
@.str.39 = private unnamed_addr constant [64 x i8] c"Global options (affect whole program instead of just one file):\00", align 1
@.str.40 = private unnamed_addr constant [25 x i8] c"Advanced global options:\00", align 1
@.str.41 = private unnamed_addr constant [37 x i8] c"Per-file options (input and output):\00", align 1
@.str.42 = private unnamed_addr constant [46 x i8] c"Advanced per-file options (input and output):\00", align 1
@.str.43 = private unnamed_addr constant [31 x i8] c"Per-file options (input-only):\00", align 1
@.str.44 = private unnamed_addr constant [40 x i8] c"Advanced per-file options (input-only):\00", align 1
@.str.45 = private unnamed_addr constant [32 x i8] c"Per-file options (output-only):\00", align 1
@.str.46 = private unnamed_addr constant [41 x i8] c"Advanced per-file options (output-only):\00", align 1
@.str.47 = private unnamed_addr constant [20 x i8] c"Per-stream options:\00", align 1
@.str.48 = private unnamed_addr constant [29 x i8] c"Advanced per-stream options:\00", align 1
@.str.49 = private unnamed_addr constant [15 x i8] c"Video options:\00", align 1
@.str.50 = private unnamed_addr constant [24 x i8] c"Advanced Video options:\00", align 1
@.str.51 = private unnamed_addr constant [15 x i8] c"Audio options:\00", align 1
@.str.52 = private unnamed_addr constant [24 x i8] c"Advanced Audio options:\00", align 1
@.str.53 = private unnamed_addr constant [18 x i8] c"Subtitle options:\00", align 1
@.str.54 = private unnamed_addr constant [27 x i8] c"Advanced Subtitle options:\00", align 1
@.str.55 = private unnamed_addr constant [21 x i8] c"Data stream options:\00", align 1
@.str.56 = private unnamed_addr constant [2 x i8] c"\0A\00", align 1
@.str.57 = private unnamed_addr constant [27 x i8] c"Universal media converter\0A\00", align 1
@.str.58 = private unnamed_addr constant [84 x i8] c"usage: %s [options] [[infile options] -i infile]... {[outfile options] outfile}...\0A\00", align 1

; Function Attrs: nounwind uwtable
define void @show_usage() #0 {
  call void (ptr, i32, ptr, ...) @av_log(ptr noundef null, i32 noundef 32, ptr noundef @.str.57)
  call void (ptr, i32, ptr, ...) @av_log(ptr noundef null, i32 noundef 32, ptr noundef @.str.58, ptr noundef @program_name)
  call void (ptr, i32, ptr, ...) @av_log(ptr noundef null, i32 noundef 32, ptr noundef @.str.56)
  ret void
}

; Function Attrs: nounwind uwtable
define void @show_help_default(ptr noundef %0, ptr noundef %1) #0 {
  %3 = alloca ptr, align 8
  %4 = alloca ptr, align 8
  %5 = alloca i32, align 4
  %6 = alloca i32, align 4
  %7 = alloca i32, align 4
  store ptr %0, ptr %3, align 8, !tbaa !23
  store ptr %1, ptr %4, align 8, !tbaa !23
  call void @llvm.lifetime.start.p0(i64 4, ptr %5) #12
  store i32 0, ptr %5, align 4, !tbaa !16
  call void @llvm.lifetime.start.p0(i64 4, ptr %6) #12
  store i32 0, ptr %6, align 4, !tbaa !16
  %8 = load ptr, ptr %3, align 8, !tbaa !23
  %9 = icmp ne ptr %8, null
  br i1 %9, label %10, label %29

10:                                               ; preds = %2
  %11 = load ptr, ptr %3, align 8, !tbaa !23
  %12 = load i8, ptr %11, align 1, !tbaa !9
  %13 = sext i8 %12 to i32
  %14 = icmp ne i32 %13, 0
  br i1 %14, label %15, label %29

15:                                               ; preds = %10
  %16 = load ptr, ptr %3, align 8, !tbaa !23
  %17 = call i32 @strcmp(ptr noundef %16, ptr noundef @.str.33) #13
  %18 = icmp ne i32 %17, 0
  br i1 %18, label %20, label %19

19:                                               ; preds = %15
  store i32 1, ptr %5, align 4, !tbaa !16
  br label %28

20:                                               ; preds = %15
  %21 = load ptr, ptr %3, align 8, !tbaa !23
  %22 = call i32 @strcmp(ptr noundef %21, ptr noundef @.str.34) #13
  %23 = icmp ne i32 %22, 0
  br i1 %23, label %25, label %24

24:                                               ; preds = %20
  store i32 1, ptr %6, align 4, !tbaa !16
  store i32 1, ptr %5, align 4, !tbaa !16
  br label %27

25:                                               ; preds = %20
  %26 = load ptr, ptr %3, align 8, !tbaa !23
  call void (ptr, i32, ptr, ...) @av_log(ptr noundef null, i32 noundef 16, ptr noundef @.str.35, ptr noundef %26)
  br label %27

27:                                               ; preds = %25, %24
  br label %28

28:                                               ; preds = %27, %19
  br label %29

29:                                               ; preds = %28, %10, %2
  call void @show_usage()
  %30 = call i32 (ptr, ...) @printf(ptr noundef @.str.36, ptr noundef @program_name)
  call void @show_help_options(ptr noundef @options, ptr noundef @.str.37, i32 noundef 2, i32 noundef 4)
  %31 = load i32, ptr %5, align 4, !tbaa !16
  %32 = icmp ne i32 %31, 0
  br i1 %32, label %33, label %34

33:                                               ; preds = %29
  call void @show_help_options(ptr noundef @options, ptr noundef @.str.38, i32 noundef 6, i32 noundef 0)
  br label %34

34:                                               ; preds = %33, %29
  call void @show_help_options(ptr noundef @options, ptr noundef @.str.39, i32 noundef 0, i32 noundef 134)
  %35 = load i32, ptr %5, align 4, !tbaa !16
  %36 = icmp ne i32 %35, 0
  br i1 %36, label %37, label %38

37:                                               ; preds = %34
  call void @show_help_options(ptr noundef @options, ptr noundef @.str.40, i32 noundef 4, i32 noundef 130)
  br label %38

38:                                               ; preds = %37, %34
  call void @show_help_options(ptr noundef @options, ptr noundef @.str.41, i32 noundef 6272, i32 noundef 1150)
  %39 = load i32, ptr %5, align 4, !tbaa !16
  %40 = icmp ne i32 %39, 0
  br i1 %40, label %41, label %42

41:                                               ; preds = %38
  call void @show_help_options(ptr noundef @options, ptr noundef @.str.42, i32 noundef 6276, i32 noundef 1146)
  br label %42

42:                                               ; preds = %41, %38
  call void @show_help_options(ptr noundef @options, ptr noundef @.str.43, i32 noundef 2176, i32 noundef 5246)
  %43 = load i32, ptr %5, align 4, !tbaa !16
  %44 = icmp ne i32 %43, 0
  br i1 %44, label %45, label %46

45:                                               ; preds = %42
  call void @show_help_options(ptr noundef @options, ptr noundef @.str.44, i32 noundef 2180, i32 noundef 5242)
  br label %46

46:                                               ; preds = %45, %42
  call void @show_help_options(ptr noundef @options, ptr noundef @.str.45, i32 noundef 4224, i32 noundef 3198)
  %47 = load i32, ptr %5, align 4, !tbaa !16
  %48 = icmp ne i32 %47, 0
  br i1 %48, label %49, label %50

49:                                               ; preds = %46
  call void @show_help_options(ptr noundef @options, ptr noundef @.str.46, i32 noundef 4228, i32 noundef 3194)
  br label %50

50:                                               ; preds = %49, %46
  call void @show_help_options(ptr noundef @options, ptr noundef @.str.47, i32 noundef 1024, i32 noundef 126)
  %51 = load i32, ptr %5, align 4, !tbaa !16
  %52 = icmp ne i32 %51, 0
  br i1 %52, label %53, label %54

53:                                               ; preds = %50
  call void @show_help_options(ptr noundef @options, ptr noundef @.str.48, i32 noundef 1028, i32 noundef 122)
  br label %54

54:                                               ; preds = %53, %50
  call void @show_help_options(ptr noundef @options, ptr noundef @.str.49, i32 noundef 8, i32 noundef 116)
  %55 = load i32, ptr %5, align 4, !tbaa !16
  %56 = icmp ne i32 %55, 0
  br i1 %56, label %57, label %58

57:                                               ; preds = %54
  call void @show_help_options(ptr noundef @options, ptr noundef @.str.50, i32 noundef 12, i32 noundef 112)
  br label %58

58:                                               ; preds = %57, %54
  call void @show_help_options(ptr noundef @options, ptr noundef @.str.51, i32 noundef 16, i32 noundef 108)
  %59 = load i32, ptr %5, align 4, !tbaa !16
  %60 = icmp ne i32 %59, 0
  br i1 %60, label %61, label %62

61:                                               ; preds = %58
  call void @show_help_options(ptr noundef @options, ptr noundef @.str.52, i32 noundef 20, i32 noundef 104)
  br label %62

62:                                               ; preds = %61, %58
  call void @show_help_options(ptr noundef @options, ptr noundef @.str.53, i32 noundef 32, i32 noundef 92)
  %63 = load i32, ptr %5, align 4, !tbaa !16
  %64 = icmp ne i32 %63, 0
  br i1 %64, label %65, label %66

65:                                               ; preds = %62
  call void @show_help_options(ptr noundef @options, ptr noundef @.str.54, i32 noundef 36, i32 noundef 88)
  br label %66

66:                                               ; preds = %65, %62
  %67 = load i32, ptr %5, align 4, !tbaa !16
  %68 = icmp ne i32 %67, 0
  br i1 %68, label %69, label %70

69:                                               ; preds = %66
  call void @show_help_options(ptr noundef @options, ptr noundef @.str.55, i32 noundef 64, i32 noundef 56)
  br label %70

70:                                               ; preds = %69, %66
  %71 = call i32 (ptr, ...) @printf(ptr noundef @.str.56)
  %72 = load i32, ptr %6, align 4, !tbaa !16
  %73 = icmp ne i32 %72, 0
  br i1 %73, label %74, label %84

74:                                               ; preds = %70
  call void @llvm.lifetime.start.p0(i64 4, ptr %7) #12
  store i32 3, ptr %7, align 4, !tbaa !16
  %75 = call ptr @avcodec_get_class()
  %76 = load i32, ptr %7, align 4, !tbaa !16
  call void @show_help_children(ptr noundef %75, i32 noundef %76)
  %77 = call ptr @avformat_get_class()
  %78 = load i32, ptr %7, align 4, !tbaa !16
  call void @show_help_children(ptr noundef %77, i32 noundef %78)
  %79 = call ptr @sws_get_class()
  %80 = load i32, ptr %7, align 4, !tbaa !16
  call void @show_help_children(ptr noundef %79, i32 noundef %80)
  %81 = call ptr @swr_get_class()
  call void @show_help_children(ptr noundef %81, i32 noundef 8)
  %82 = call ptr @avfilter_get_class()
  call void @show_help_children(ptr noundef %82, i32 noundef 65560)
  %83 = call ptr @av_bsf_get_class()
  call void @show_help_children(ptr noundef %83, i32 noundef 280)
  call void @llvm.lifetime.end.p0(i64 4, ptr %7) #12
  br label %84

84:                                               ; preds = %74, %70
  call void @llvm.lifetime.end.p0(i64 4, ptr %6) #12
  call void @llvm.lifetime.end.p0(i64 4, ptr %5) #12
  ret void
}