; Function Attrs: nounwind uwtable
define void @show_help_default(ptr noundef %0, ptr noundef readnone captures(none) %1) local_unnamed_addr #0 {
  %.not = icmp eq ptr %0, null
  br i1 %.not, label %10, label %3

3:                                                ; preds = %2
  %4 = load i8, ptr %0, align 1, !tbaa !19
  %.not20 = icmp eq i8 %4, 0
  br i1 %.not20, label %10, label %5

5:                                                ; preds = %3
  %6 = tail call i32 @strcmp(ptr noundef nonnull dereferenceable(1) %0, ptr noundef nonnull dereferenceable(5) @.str.33) #17
  %.not21 = icmp eq i32 %6, 0
  br i1 %.not21, label %10, label %7

7:                                                ; preds = %5
  %8 = tail call i32 @strcmp(ptr noundef nonnull dereferenceable(1) %0, ptr noundef nonnull dereferenceable(5) @.str.34) #17
  %.not22 = icmp eq i32 %8, 0
  br i1 %.not22, label %10, label %9

9:                                                ; preds = %7
  tail call void (ptr, i32, ptr, ...) @av_log(ptr noundef null, i32 noundef 16, ptr noundef nonnull @.str.35, ptr noundef nonnull %0) #15
  br label %10

10:                                               ; preds = %7, %5, %9, %3, %2
  %.not24 = phi i1 [ true, %9 ], [ true, %3 ], [ true, %2 ], [ true, %5 ], [ false, %7 ]
  %.not23 = phi i1 [ true, %9 ], [ true, %3 ], [ true, %2 ], [ false, %5 ], [ false, %7 ]
  tail call void (ptr, i32, ptr, ...) @av_log(ptr noundef null, i32 noundef 32, ptr noundef nonnull @.str.57) #15
  tail call void (ptr, i32, ptr, ...) @av_log(ptr noundef null, i32 noundef 32, ptr noundef nonnull @.str.58, ptr noundef nonnull @program_name) #15
  tail call void (ptr, i32, ptr, ...) @av_log(ptr noundef null, i32 noundef 32, ptr noundef nonnull @.str.56) #15
  %11 = tail call i32 (ptr, ...) @printf(ptr noundef nonnull dereferenceable(1) @.str.36, ptr noundef nonnull @program_name)
  tail call void @show_help_options(ptr noundef nonnull @options, ptr noundef nonnull @.str.37, i32 noundef 2, i32 noundef 4) #15
  br i1 %.not23, label %.thread43, label %12

.thread43:                                        ; preds = %10
  tail call void @show_help_options(ptr noundef nonnull @options, ptr noundef nonnull @.str.39, i32 noundef 0, i32 noundef 134) #15
  tail call void @show_help_options(ptr noundef nonnull @options, ptr noundef nonnull @.str.41, i32 noundef 6272, i32 noundef 1150) #15
  tail call void @show_help_options(ptr noundef nonnull @options, ptr noundef nonnull @.str.43, i32 noundef 2176, i32 noundef 5246) #15
  tail call void @show_help_options(ptr noundef nonnull @options, ptr noundef nonnull @.str.45, i32 noundef 4224, i32 noundef 3198) #15
  tail call void @show_help_options(ptr noundef nonnull @options, ptr noundef nonnull @.str.47, i32 noundef 1024, i32 noundef 126) #15
  tail call void @show_help_options(ptr noundef nonnull @options, ptr noundef nonnull @.str.49, i32 noundef 8, i32 noundef 116) #15
  tail call void @show_help_options(ptr noundef nonnull @options, ptr noundef nonnull @.str.51, i32 noundef 16, i32 noundef 108) #15
  tail call void @show_help_options(ptr noundef nonnull @options, ptr noundef nonnull @.str.53, i32 noundef 32, i32 noundef 92) #15
  br label %.critedge40

12:                                               ; preds = %10
  tail call void @show_help_options(ptr noundef nonnull @options, ptr noundef nonnull @.str.38, i32 noundef 6, i32 noundef 0) #15
  tail call void @show_help_options(ptr noundef nonnull @options, ptr noundef nonnull @.str.39, i32 noundef 0, i32 noundef 134) #15
  tail call void @show_help_options(ptr noundef nonnull @options, ptr noundef nonnull @.str.40, i32 noundef 4, i32 noundef 130) #15
  tail call void @show_help_options(ptr noundef nonnull @options, ptr noundef nonnull @.str.41, i32 noundef 6272, i32 noundef 1150) #15
  tail call void @show_help_options(ptr noundef nonnull @options, ptr noundef nonnull @.str.42, i32 noundef 6276, i32 noundef 1146) #15
  tail call void @show_help_options(ptr noundef nonnull @options, ptr noundef nonnull @.str.43, i32 noundef 2176, i32 noundef 5246) #15
  tail call void @show_help_options(ptr noundef nonnull @options, ptr noundef nonnull @.str.44, i32 noundef 2180, i32 noundef 5242) #15
  tail call void @show_help_options(ptr noundef nonnull @options, ptr noundef nonnull @.str.45, i32 noundef 4224, i32 noundef 3198) #15
  tail call void @show_help_options(ptr noundef nonnull @options, ptr noundef nonnull @.str.46, i32 noundef 4228, i32 noundef 3194) #15
  tail call void @show_help_options(ptr noundef nonnull @options, ptr noundef nonnull @.str.47, i32 noundef 1024, i32 noundef 126) #15
  tail call void @show_help_options(ptr noundef nonnull @options, ptr noundef nonnull @.str.48, i32 noundef 1028, i32 noundef 122) #15
  tail call void @show_help_options(ptr noundef nonnull @options, ptr noundef nonnull @.str.49, i32 noundef 8, i32 noundef 116) #15
  tail call void @show_help_options(ptr noundef nonnull @options, ptr noundef nonnull @.str.50, i32 noundef 12, i32 noundef 112) #15
  tail call void @show_help_options(ptr noundef nonnull @options, ptr noundef nonnull @.str.51, i32 noundef 16, i32 noundef 108) #15
  tail call void @show_help_options(ptr noundef nonnull @options, ptr noundef nonnull @.str.52, i32 noundef 20, i32 noundef 104) #15
  tail call void @show_help_options(ptr noundef nonnull @options, ptr noundef nonnull @.str.53, i32 noundef 32, i32 noundef 92) #15
  tail call void @show_help_options(ptr noundef nonnull @options, ptr noundef nonnull @.str.54, i32 noundef 36, i32 noundef 88) #15
  tail call void @show_help_options(ptr noundef nonnull @options, ptr noundef nonnull @.str.55, i32 noundef 64, i32 noundef 56) #15
  br label %.critedge40

.critedge40:                                      ; preds = %.thread43, %12
  %putchar = tail call i32 @putchar(i32 10)
  br i1 %.not24, label %20, label %13

13:                                               ; preds = %.critedge40
  %14 = tail call ptr @avcodec_get_class() #15
  tail call void @show_help_children(ptr noundef %14, i32 noundef 3) #15
  %15 = tail call ptr @avformat_get_class() #15
  tail call void @show_help_children(ptr noundef %15, i32 noundef 3) #15
  %16 = tail call ptr @sws_get_class() #15
  tail call void @show_help_children(ptr noundef %16, i32 noundef 3) #15
  %17 = tail call ptr @swr_get_class() #15
  tail call void @show_help_children(ptr noundef %17, i32 noundef 8) #15
  %18 = tail call ptr @avfilter_get_class() #15
  tail call void @show_help_children(ptr noundef %18, i32 noundef 65560) #15
  %19 = tail call ptr @av_bsf_get_class() #15
  tail call void @show_help_children(ptr noundef %19, i32 noundef 280) #15
  br label %20

20:                                               ; preds = %13, %.critedge40
  ret void
}